target datalayout = "e-m:e-p270:32:32-p271:32:32-p272:64:64-i64:64-i128:128-f80:128-n8:16:32:64-S128"
target triple = "x86_64-pc-linux-gnu"

%struct._object = type { %union.anon, ptr }
%union.anon = type { i64 }
%struct.anon.5 = type { i32, i32 }

@_PySys_ImplName = hidden global ptr @.str.15, align 8
@_PySys_ImplCacheTag = hidden global ptr @.str.16, align 8
@.str.151 = private unnamed_addr constant [8 x i8] c"version\00", align 1
@.str.152 = private unnamed_addr constant [11 x i8] c"hexversion\00", align 1
@.str.501 = private unnamed_addr constant [5 x i8] c"name\00", align 1
@.str.502 = private unnamed_addr constant [10 x i8] c"cache_tag\00", align 1
@.str.503 = private unnamed_addr constant [17 x i8] c"x86_64-linux-gnu\00", align 1
@.str.504 = private unnamed_addr constant [11 x i8] c"_multiarch\00", align 1

; Function Attrs: alwaysinline nounwind uwtable
define internal i32 @_Py_IsImmortal(ptr noundef %0) #5 {
  %2 = alloca ptr, align 8
  store ptr %0, ptr %2, align 8, !tbaa !9
  %3 = load ptr, ptr %2, align 8, !tbaa !9
  %4 = getelementptr inbounds nuw %struct._object, ptr %3, i32 0, i32 0
  %5 = getelementptr inbounds nuw %struct.anon.5, ptr %4, i32 0, i32 0
  %6 = load i32, ptr %5, align 8, !tbaa !102
  %7 = icmp slt i32 %6, 0
  %8 = zext i1 %7 to i32
  ret i32 %8
}

; Function Attrs: alwaysinline nounwind uwtable
define internal void @Py_DECREF(ptr noundef %0) #5 {
  %2 = alloca ptr, align 8
  store ptr %0, ptr %2, align 8, !tbaa !9
  %3 = load ptr, ptr %2, align 8, !tbaa !9
  %4 = call i32 @_Py_IsImmortal(ptr noundef %3)
  %5 = icmp ne i32 %4, 0
  br i1 %5, label %6, label %7

6:                                                ; preds = %1
  br label %16

7:                                                ; preds = %1
  %8 = load ptr, ptr %2, align 8, !tbaa !9
  %9 = getelementptr inbounds nuw %struct._object, ptr %8, i32 0, i32 0
  %10 = getelementptr inbounds nuw %struct.anon.5, ptr %9, i32 0, i32 0
  %11 = load i32, ptr %10, align 8, !tbaa !102
  %12 = add i32 %11, -1
  store i32 %12, ptr %10, align 8, !tbaa !102
  %13 = icmp eq i32 %12, 0
  br i1 %13, label %14, label %16

14:                                               ; preds = %7
  %15 = load ptr, ptr %2, align 8, !tbaa !9
  call void @_Py_Dealloc(ptr noundef %15)
  br label %16

16:                                               ; preds = %6, %14, %7
  ret void
}

; Function Attrs: nounwind uwtable
define internal ptr @make_impl_info(ptr noundef %0) #0 {
  %2 = alloca ptr, align 8
  %3 = alloca ptr, align 8
  %4 = alloca i32, align 4
  %5 = alloca ptr, align 8
  %6 = alloca ptr, align 8
  %7 = alloca ptr, align 8
  %8 = alloca i32, align 4
  %9 = alloca ptr, align 8
  %10 = alloca ptr, align 8
  store ptr %0, ptr %3, align 8, !tbaa !9
  call void @llvm.lifetime.start.p0(i64 4, ptr %4) #12
  call void @llvm.lifetime.start.p0(i64 8, ptr %5) #12
  call void @llvm.lifetime.start.p0(i64 8, ptr %6) #12
  call void @llvm.lifetime.start.p0(i64 8, ptr %7) #12
  %11 = call ptr @PyDict_New()
  store ptr %11, ptr %5, align 8, !tbaa !9
  %12 = load ptr, ptr %5, align 8, !tbaa !9
  %13 = icmp eq ptr %12, null
  br i1 %13, label %14, label %15

14:                                               ; preds = %1
  store ptr null, ptr %2, align 8
  store i32 1, ptr %8, align 4
  br label %93

15:                                               ; preds = %1
  %16 = load ptr, ptr @_PySys_ImplName, align 8, !tbaa !94
  %17 = call ptr @PyUnicode_FromString(ptr noundef %16)
  store ptr %17, ptr %6, align 8, !tbaa !9
  %18 = load ptr, ptr %6, align 8, !tbaa !9
  %19 = icmp eq ptr %18, null
  br i1 %19, label %20, label %21

20:                                               ; preds = %15
  br label %81

21:                                               ; preds = %15
  %22 = load ptr, ptr %5, align 8, !tbaa !9
  %23 = load ptr, ptr %6, align 8, !tbaa !9
  %24 = call i32 @PyDict_SetItemString(ptr noundef %22, ptr noundef @.str.501, ptr noundef %23)
  store i32 %24, ptr %4, align 4, !tbaa !97
  %25 = load ptr, ptr %6, align 8, !tbaa !9
  call void @Py_DECREF(ptr noundef %25)
  %26 = load i32, ptr %4, align 4, !tbaa !97
  %27 = icmp slt i32 %26, 0
  br i1 %27, label %28, label %29

28:                                               ; preds = %21
  br label %81

29:                                               ; preds = %21
  %30 = load ptr, ptr @_PySys_ImplCacheTag, align 8, !tbaa !94
  %31 = call ptr @PyUnicode_FromString(ptr noundef %30)
  store ptr %31, ptr %6, align 8, !tbaa !9
  %32 = load ptr, ptr %6, align 8, !tbaa !9
  %33 = icmp eq ptr %32, null
  br i1 %33, label %34, label %35

34:                                               ; preds = %29
  br label %81

35:                                               ; preds = %29
  %36 = load ptr, ptr %5, align 8, !tbaa !9
  %37 = load ptr, ptr %6, align 8, !tbaa !9
  %38 = call i32 @PyDict_SetItemString(ptr noundef %36, ptr noundef @.str.502, ptr noundef %37)
  store i32 %38, ptr %4, align 4, !tbaa !97
  %39 = load ptr, ptr %6, align 8, !tbaa !9
  call void @Py_DECREF(ptr noundef %39)
  %40 = load i32, ptr %4, align 4, !tbaa !97
  %41 = icmp slt i32 %40, 0
  br i1 %41, label %42, label %43

42:                                               ; preds = %35
  br label %81

43:                                               ; preds = %35
  %44 = load ptr, ptr %5, align 8, !tbaa !9
  %45 = load ptr, ptr %3, align 8, !tbaa !9
  %46 = call i32 @PyDict_SetItemString(ptr noundef %44, ptr noundef @.str.151, ptr noundef %45)
  store i32 %46, ptr %4, align 4, !tbaa !97
  %47 = load i32, ptr %4, align 4, !tbaa !97
  %48 = icmp slt i32 %47, 0
  br i1 %48, label %49, label %50

49:                                               ; preds = %43
  br label %81

50:                                               ; preds = %43
  %51 = call ptr @PyLong_FromLong(i64 noundef 51249316)
  store ptr %51, ptr %6, align 8, !tbaa !9
  %52 = load ptr, ptr %6, align 8, !tbaa !9
  %53 = icmp eq ptr %52, null
  br i1 %53, label %54, label %55

54:                                               ; preds = %50
  br label %81

55:                                               ; preds = %50
  %56 = load ptr, ptr %5, align 8, !tbaa !9
  %57 = load ptr, ptr %6, align 8, !tbaa !9
  %58 = call i32 @PyDict_SetItemString(ptr noundef %56, ptr noundef @.str.152, ptr noundef %57)
  store i32 %58, ptr %4, align 4, !tbaa !97
  %59 = load ptr, ptr %6, align 8, !tbaa !9
  call void @Py_DECREF(ptr noundef %59)
  %60 = load i32, ptr %4, align 4, !tbaa !97
  %61 = icmp slt i32 %60, 0
  br i1 %61, label %62, label %63

62:                                               ; preds = %55
  br label %81

63:                                               ; preds = %55
  %64 = call ptr @PyUnicode_FromString(ptr noundef @.str.503)
  store ptr %64, ptr %6, align 8, !tbaa !9
  %65 = load ptr, ptr %6, align 8, !tbaa !9
  %66 = icmp eq ptr %65, null
  br i1 %66, label %67, label %68

67:                                               ; preds = %63
  br label %81

68:                                               ; preds = %63
  %69 = load ptr, ptr %5, align 8, !tbaa !9
  %70 = load ptr, ptr %6, align 8, !tbaa !9
  %71 = call i32 @PyDict_SetItemString(ptr noundef %69, ptr noundef @.str.504, ptr noundef %70)
  store i32 %71, ptr %4, align 4, !tbaa !97
  %72 = load ptr, ptr %6, align 8, !tbaa !9
  call void @Py_DECREF(ptr noundef %72)
  %73 = load i32, ptr %4, align 4, !tbaa !97
  %74 = icmp slt i32 %73, 0
  br i1 %74, label %75, label %76

75:                                               ; preds = %68
  br label %81

76:                                               ; preds = %68
  %77 = load ptr, ptr %5, align 8, !tbaa !9
  %78 = call ptr @_PyNamespace_New(ptr noundef %77)
  store ptr %78, ptr %7, align 8, !tbaa !9
  %79 = load ptr, ptr %5, align 8, !tbaa !9
  call void @Py_DECREF(ptr noundef %79)
  %80 = load ptr, ptr %7, align 8, !tbaa !9
  store ptr %80, ptr %2, align 8
  store i32 1, ptr %8, align 4
  br label %93

81:                                               ; preds = %75, %67, %62, %54, %49, %42, %34, %28, %20
  br label %82

82:                                               ; preds = %81
  call void @llvm.lifetime.start.p0(i64 8, ptr %9) #12
  store ptr %5, ptr %9, align 8, !tbaa !103
  call void @llvm.lifetime.start.p0(i64 8, ptr %10) #12
  %83 = load ptr, ptr %9, align 8, !tbaa !103
  %84 = load ptr, ptr %83, align 8, !tbaa !9
  store ptr %84, ptr %10, align 8, !tbaa !9
  %85 = load ptr, ptr %10, align 8, !tbaa !9
  %86 = icmp ne ptr %85, null
  br i1 %86, label %87, label %90

87:                                               ; preds = %82
  %88 = load ptr, ptr %9, align 8, !tbaa !103
  store ptr null, ptr %88, align 8, !tbaa !9
  %89 = load ptr, ptr %10, align 8, !tbaa !9
  call void @Py_DECREF(ptr noundef %89)
  br label %90

90:                                               ; preds = %87, %82
  call void @llvm.lifetime.end.p0(i64 8, ptr %10) #12
  call void @llvm.lifetime.end.p0(i64 8, ptr %9) #12
  br label %91

91:                                               ; preds = %90
  br label %92

92:                                               ; preds = %91
  store ptr null, ptr %2, align 8
  store i32 1, ptr %8, align 4
  br label %93

93:                                               ; preds = %92, %76, %14
  call void @llvm.lifetime.end.p0(i64 8, ptr %7) #12
  call void @llvm.lifetime.end.p0(i64 8, ptr %6) #12
  call void @llvm.lifetime.end.p0(i64 8, ptr %5) #12
  call void @llvm.lifetime.end.p0(i64 4, ptr %4) #12
  %94 = load ptr, ptr %2, align 8
  ret ptr %94
}