; Function Attrs: nounwind uwtable
define internal fastcc ptr @make_impl_info(ptr noundef %0) unnamed_addr #0 {
  %2 = tail call ptr @PyDict_New() #15
  %3 = icmp eq ptr %2, null
  br i1 %3, label %Py_DECREF.exit37, label %4

4:                                                ; preds = %1
  %5 = load ptr, ptr @_PySys_ImplName, align 8, !tbaa !213
  %6 = tail call ptr @PyUnicode_FromString(ptr noundef %5) #15
  %7 = icmp eq ptr %6, null
  br i1 %7, label %59, label %8

8:                                                ; preds = %4
  %9 = tail call i32 @PyDict_SetItemString(ptr noundef nonnull %2, ptr noundef nonnull @.str.501, ptr noundef nonnull %6) #15
  %10 = load i32, ptr %6, align 8, !tbaa !94
  %.not.i44 = icmp sgt i32 %10, -1
  br i1 %.not.i44, label %11, label %Py_DECREF.exit45

11:                                               ; preds = %8
  %12 = add nsw i32 %10, -1
  store i32 %12, ptr %6, align 8, !tbaa !94
  %13 = icmp eq i32 %12, 0
  br i1 %13, label %14, label %Py_DECREF.exit45

14:                                               ; preds = %11
  tail call void @_Py_Dealloc(ptr noundef nonnull %6) #15
  br label %Py_DECREF.exit45

Py_DECREF.exit45:                                 ; preds = %8, %11, %14
  %15 = icmp slt i32 %9, 0
  br i1 %15, label %59, label %16

16:                                               ; preds = %Py_DECREF.exit45
  %17 = load ptr, ptr @_PySys_ImplCacheTag, align 8, !tbaa !213
  %18 = tail call ptr @PyUnicode_FromString(ptr noundef %17) #15
  %19 = icmp eq ptr %18, null
  br i1 %19, label %59, label %20

20:                                               ; preds = %16
  %21 = tail call i32 @PyDict_SetItemString(ptr noundef nonnull %2, ptr noundef nonnull @.str.502, ptr noundef nonnull %18) #15
  %22 = load i32, ptr %18, align 8, !tbaa !94
  %.not.i42 = icmp sgt i32 %22, -1
  br i1 %.not.i42, label %23, label %Py_DECREF.exit43

23:                                               ; preds = %20
  %24 = add nsw i32 %22, -1
  store i32 %24, ptr %18, align 8, !tbaa !94
  %25 = icmp eq i32 %24, 0
  br i1 %25, label %26, label %Py_DECREF.exit43

26:                                               ; preds = %23
  tail call void @_Py_Dealloc(ptr noundef nonnull %18) #15
  br label %Py_DECREF.exit43

Py_DECREF.exit43:                                 ; preds = %20, %23, %26
  %27 = icmp slt i32 %21, 0
  br i1 %27, label %59, label %28

28:                                               ; preds = %Py_DECREF.exit43
  %29 = tail call i32 @PyDict_SetItemString(ptr noundef nonnull %2, ptr noundef nonnull @.str.151, ptr noundef %0) #15
  %30 = icmp slt i32 %29, 0
  br i1 %30, label %59, label %31

31:                                               ; preds = %28
  %32 = tail call ptr @PyLong_FromLong(i64 noundef 51249316) #15
  %33 = icmp eq ptr %32, null
  br i1 %33, label %59, label %34

34:                                               ; preds = %31
  %35 = tail call i32 @PyDict_SetItemString(ptr noundef nonnull %2, ptr noundef nonnull @.str.152, ptr noundef nonnull %32) #15
  %36 = load i32, ptr %32, align 8, !tbaa !94
  %.not.i40 = icmp sgt i32 %36, -1
  br i1 %.not.i40, label %37, label %Py_DECREF.exit41

37:                                               ; preds = %34
  %38 = add nsw i32 %36, -1
  store i32 %38, ptr %32, align 8, !tbaa !94
  %39 = icmp eq i32 %38, 0
  br i1 %39, label %40, label %Py_DECREF.exit41

40:                                               ; preds = %37
  tail call void @_Py_Dealloc(ptr noundef nonnull %32) #15
  br label %Py_DECREF.exit41

Py_DECREF.exit41:                                 ; preds = %34, %37, %40
  %41 = icmp slt i32 %35, 0
  br i1 %41, label %59, label %42

42:                                               ; preds = %Py_DECREF.exit41
  %43 = tail call ptr @PyUnicode_FromString(ptr noundef nonnull @.str.503) #15
  %44 = icmp eq ptr %43, null
  br i1 %44, label %59, label %45

45:                                               ; preds = %42
  %46 = tail call i32 @PyDict_SetItemString(ptr noundef nonnull %2, ptr noundef nonnull @.str.504, ptr noundef nonnull %43) #15
  %47 = load i32, ptr %43, align 8, !tbaa !94
  %.not.i38 = icmp sgt i32 %47, -1
  br i1 %.not.i38, label %48, label %Py_DECREF.exit39

48:                                               ; preds = %45
  %49 = add nsw i32 %47, -1
  store i32 %49, ptr %43, align 8, !tbaa !94
  %50 = icmp eq i32 %49, 0
  br i1 %50, label %51, label %Py_DECREF.exit39

51:                                               ; preds = %48
  tail call void @_Py_Dealloc(ptr noundef nonnull %43) #15
  br label %Py_DECREF.exit39

Py_DECREF.exit39:                                 ; preds = %45, %48, %51
  %52 = icmp slt i32 %46, 0
  br i1 %52, label %59, label %53

53:                                               ; preds = %Py_DECREF.exit39
  %54 = tail call ptr @_PyNamespace_New(ptr noundef nonnull %2) #15
  %55 = load i32, ptr %2, align 8, !tbaa !94
  %.not.i36 = icmp sgt i32 %55, -1
  br i1 %.not.i36, label %56, label %Py_DECREF.exit37

56:                                               ; preds = %53
  %57 = add nsw i32 %55, -1
  store i32 %57, ptr %2, align 8, !tbaa !94
  %58 = icmp eq i32 %57, 0
  br i1 %58, label %Py_DECREF.exit37.sink.split, label %Py_DECREF.exit37

59:                                               ; preds = %Py_DECREF.exit39, %42, %Py_DECREF.exit41, %31, %28, %Py_DECREF.exit43, %16, %Py_DECREF.exit45, %4
  %60 = load i32, ptr %2, align 8, !tbaa !94
  %.not.i = icmp sgt i32 %60, -1
  br i1 %.not.i, label %61, label %Py_DECREF.exit37

61:                                               ; preds = %59
  %62 = add nsw i32 %60, -1
  store i32 %62, ptr %2, align 8, !tbaa !94
  %63 = icmp eq i32 %62, 0
  br i1 %63, label %Py_DECREF.exit37.sink.split, label %Py_DECREF.exit37

Py_DECREF.exit37.sink.split:                      ; preds = %61, %56
  %.0.ph = phi ptr [ %54, %56 ], [ null, %61 ]
  tail call void @_Py_Dealloc(ptr noundef nonnull %2) #15
  br label %Py_DECREF.exit37

Py_DECREF.exit37:                                 ; preds = %Py_DECREF.exit37.sink.split, %61, %59, %56, %53, %1
  %.0 = phi ptr [ null, %1 ], [ %54, %53 ], [ %54, %56 ], [ null, %59 ], [ null, %61 ], [ %.0.ph, %Py_DECREF.exit37.sink.split ]
  ret ptr %.0
}